; Function Attrs: nounwind uwtable
define dso_local zeroext i1 @consume(ptr noundef %0, i32 noundef %1, ptr noundef %2, ...) local_unnamed_addr #0 {
  %4 = alloca [1 x %struct.__va_list_tag], align 16
  %5 = getelementptr inbounds i8, ptr %0, i64 40
  %6 = load i32, ptr %5, align 8
  %7 = icmp eq i32 %6, %1
  %8 = icmp ne i32 %6, 189
  %or.cond.not.i = and i1 %8, %7
  br i1 %or.cond.not.i, label %9, label %try_consume.exit

9:                                                ; preds = %3
  %10 = getelementptr inbounds i8, ptr %0, i64 72
  %11 = getelementptr inbounds i8, ptr %0, i64 184
  %12 = load i32, ptr %11, align 8
  store i32 %12, ptr %5, align 8
  %13 = getelementptr inbounds i8, ptr %0, i64 136
  tail call void @llvm.memcpy.p0.p0.i64(ptr noundef nonnull align 8 dereferenceable(40) %0, ptr noundef nonnull align 8 dereferenceable(40) %13, i64 40, i1 false)
  %14 = getelementptr inbounds i8, ptr %0, i64 56
  %15 = getelementptr inbounds i8, ptr %0, i64 48
  %16 = load i64, ptr %15, align 8
  store i64 %16, ptr %14, align 8
  %17 = getelementptr inbounds i8, ptr %0, i64 176
  %18 = load i64, ptr %17, align 8
  store i64 %18, ptr %15, align 8
  %19 = tail call zeroext i1 @lexer_next_token(ptr noundef nonnull %10) #10
  br i1 %19, label %try_consume.exit, label %20

20:                                               ; preds = %9
  tail call void @exit_compiler(i32 noundef 1) #11
  unreachable

try_consume.exit:                                 ; preds = %3, %9
  br i1 %7, label %24, label %21

21:                                               ; preds = %try_consume.exit
  call void @llvm.va_start.p0(ptr nonnull %4)
  %22 = getelementptr inbounds i8, ptr %0, i64 48
  %23 = load i64, ptr %22, align 8
  call void @sema_verror_range(i64 %23, ptr noundef %2, ptr noundef nonnull %4) #10
  call void @llvm.va_end.p0(ptr nonnull %4)
  br label %24

24:                                               ; preds = %try_consume.exit, %21
  ret i1 %7
}